target datalayout = "e-m:e-p270:32:32-p271:32:32-p272:64:64-i64:64-i128:128-f80:128-n8:16:32:64-S128"
target triple = "x86_64-pc-linux-gnu"

%struct.H5O_mesg_t = type { ptr, i8, i8, i32, i32, ptr, ptr, i64 }
%struct.H5O_iter_rm_t = type { ptr, i32, i32, ptr, ptr, i8 }

@H5O_init_g = external global i8, align 1
@H5_libterm_g = external global i8, align 1
@.str = private unnamed_addr constant [104 x i8] c"generated/home/dtcxzyw/WorkSpace/Projects/compilers/llvm-opt-benchmark/bench/hdf5/hdf5/src/H5Omessage.c\00", align 1
@H5E_OHDR_g = external global i64, align 8
@H5E_CANTDELETE_g = external global i64, align 8
@__func__.H5O__msg_remove_cb = private unnamed_addr constant [19 x i8] c"H5O__msg_remove_cb\00", align 1
@.str.48 = private unnamed_addr constant [47 x i8] c"object header message deletion callback failed\00", align 1
@.str.49 = private unnamed_addr constant [26 x i8] c"unable to release message\00", align 1

; Function Attrs: nounwind uwtable
define internal i32 @H5O__msg_remove_cb(ptr noundef %0, ptr noundef %1, i32 noundef %2, ptr noundef %3, ptr noundef %4) #0 {
  %6 = alloca ptr, align 8
  %7 = alloca ptr, align 8
  %8 = alloca i32, align 4
  %9 = alloca ptr, align 8
  %10 = alloca ptr, align 8
  %11 = alloca ptr, align 8
  %12 = alloca i32, align 4
  %13 = alloca i32, align 4
  %14 = alloca i8, align 1
  store ptr %0, ptr %6, align 8, !tbaa !11
  store ptr %1, ptr %7, align 8, !tbaa !47
  store i32 %2, ptr %8, align 4, !tbaa !8
  store ptr %3, ptr %9, align 8, !tbaa !25
  store ptr %4, ptr %10, align 8, !tbaa !10
  call void @llvm.lifetime.start.p0(i64 8, ptr %11) #5
  %15 = load ptr, ptr %10, align 8, !tbaa !10
  store ptr %15, ptr %11, align 8, !tbaa !10
  call void @llvm.lifetime.start.p0(i64 4, ptr %12) #5
  store i32 0, ptr %12, align 4, !tbaa !8
  call void @llvm.lifetime.start.p0(i64 4, ptr %13) #5
  store i32 0, ptr %13, align 4, !tbaa !8
  call void @llvm.lifetime.start.p0(i64 1, ptr %14) #5
  store i8 0, ptr %14, align 1, !tbaa !13
  %16 = load i8, ptr @H5O_init_g, align 1, !tbaa !13, !range !15, !noundef !16
  %17 = trunc i8 %16 to i1
  br i1 %17, label %22, label %18

18:                                               ; preds = %5
  %19 = load i8, ptr @H5_libterm_g, align 1, !tbaa !13, !range !15, !noundef !16
  %20 = trunc i8 %19 to i1
  %21 = xor i1 %20, true
  br label %22

22:                                               ; preds = %18, %5
  %23 = phi i1 [ true, %5 ], [ %21, %18 ]
  %24 = xor i1 %23, true
  %25 = xor i1 %24, true
  %26 = zext i1 %25 to i32
  %27 = sext i32 %26 to i64
  %28 = call i64 @llvm.expect.i64(i64 %27, i64 1)
  %29 = icmp ne i64 %28, 0
  br i1 %29, label %30, label %133

30:                                               ; preds = %22
  %31 = load ptr, ptr %11, align 8, !tbaa !10
  %32 = getelementptr inbounds nuw %struct.H5O_iter_rm_t, ptr %31, i32 0, i32 3
  %33 = load ptr, ptr %32, align 8, !tbaa !83
  %34 = icmp ne ptr %33, null
  br i1 %34, label %35, label %68

35:                                               ; preds = %30
  %36 = load ptr, ptr %11, align 8, !tbaa !10
  %37 = getelementptr inbounds nuw %struct.H5O_iter_rm_t, ptr %36, i32 0, i32 3
  %38 = load ptr, ptr %37, align 8, !tbaa !83
  %39 = load ptr, ptr %7, align 8, !tbaa !47
  %40 = getelementptr inbounds nuw %struct.H5O_mesg_t, ptr %39, i32 0, i32 5
  %41 = load ptr, ptr %40, align 8, !tbaa !50
  %42 = load i32, ptr %8, align 4, !tbaa !8
  %43 = load ptr, ptr %11, align 8, !tbaa !10
  %44 = getelementptr inbounds nuw %struct.H5O_iter_rm_t, ptr %43, i32 0, i32 4
  %45 = load ptr, ptr %44, align 8, !tbaa !84
  %46 = call i32 %38(ptr noundef %41, i32 noundef %42, ptr noundef %45)
  store i32 %46, ptr %12, align 4, !tbaa !8
  %47 = icmp slt i32 %46, 0
  br i1 %47, label %48, label %67

48:                                               ; preds = %35
  br label %49

49:                                               ; preds = %48
  br label %50

50:                                               ; preds = %49
  br label %51

51:                                               ; preds = %50
  %52 = load i64, ptr @H5E_OHDR_g, align 8, !tbaa !17
  %53 = load i64, ptr @H5E_CANTDELETE_g, align 8, !tbaa !17
  %54 = call i32 (ptr, ptr, i32, i64, i64, ptr, ...) @H5E_printf_stack(ptr noundef @.str, ptr noundef @__func__.H5O__msg_remove_cb, i32 noundef 964, i64 noundef %52, i64 noundef %53, ptr noundef @.str.48)
  br label %55

55:                                               ; preds = %51
  br label %56

56:                                               ; preds = %55
  store i8 1, ptr %14, align 1, !tbaa !13
  %57 = load i8, ptr %14, align 1, !tbaa !13, !range !15, !noundef !16
  %58 = trunc i8 %57 to i1
  %59 = zext i1 %58 to i8
  store i8 %59, ptr %14, align 1, !tbaa !13
  br label %60

60:                                               ; preds = %56
  br label %61

61:                                               ; preds = %60
  br label %62

62:                                               ; preds = %61
  store i32 -1, ptr %13, align 4, !tbaa !8
  br label %132

63:                                               ; No predecessors!
  br label %64

64:                                               ; preds = %63
  br label %65

65:                                               ; preds = %64
  br label %66

66:                                               ; preds = %65
  br label %67

67:                                               ; preds = %66, %35
  br label %81

68:                                               ; preds = %30
  %69 = load i32, ptr %8, align 4, !tbaa !8
  %70 = load ptr, ptr %11, align 8, !tbaa !10
  %71 = getelementptr inbounds nuw %struct.H5O_iter_rm_t, ptr %70, i32 0, i32 1
  %72 = load i32, ptr %71, align 8, !tbaa !81
  %73 = icmp eq i32 %69, %72
  br i1 %73, label %79, label %74

74:                                               ; preds = %68
  %75 = load ptr, ptr %11, align 8, !tbaa !10
  %76 = getelementptr inbounds nuw %struct.H5O_iter_rm_t, ptr %75, i32 0, i32 1
  %77 = load i32, ptr %76, align 8, !tbaa !81
  %78 = icmp eq i32 -1, %77
  br i1 %78, label %79, label %80

79:                                               ; preds = %74, %68
  store i32 1, ptr %12, align 4, !tbaa !8
  br label %80

80:                                               ; preds = %79, %74
  br label %81

81:                                               ; preds = %80, %67
  %82 = load i32, ptr %12, align 4, !tbaa !8
  %83 = icmp ne i32 %82, 0
  br i1 %83, label %84, label %131

84:                                               ; preds = %81
  %85 = load ptr, ptr %11, align 8, !tbaa !10
  %86 = getelementptr inbounds nuw %struct.H5O_iter_rm_t, ptr %85, i32 0, i32 0
  %87 = load ptr, ptr %86, align 8, !tbaa !79
  %88 = load ptr, ptr %6, align 8, !tbaa !11
  %89 = load ptr, ptr %7, align 8, !tbaa !47
  %90 = load ptr, ptr %11, align 8, !tbaa !10
  %91 = getelementptr inbounds nuw %struct.H5O_iter_rm_t, ptr %90, i32 0, i32 5
  %92 = load i8, ptr %91, align 8, !tbaa !85, !range !15, !noundef !16
  %93 = trunc i8 %92 to i1
  %94 = call i32 @H5O__release_mesg(ptr noundef %87, ptr noundef %88, ptr noundef %89, i1 noundef zeroext %93)
  %95 = icmp slt i32 %94, 0
  br i1 %95, label %96, label %115

96:                                               ; preds = %84
  br label %97

97:                                               ; preds = %96
  br label %98

98:                                               ; preds = %97
  br label %99

99:                                               ; preds = %98
  %100 = load i64, ptr @H5E_OHDR_g, align 8, !tbaa !17
  %101 = load i64, ptr @H5E_CANTDELETE_g, align 8, !tbaa !17
  %102 = call i32 (ptr, ptr, i32, i64, i64, ptr, ...) @H5E_printf_stack(ptr noundef @.str, ptr noundef @__func__.H5O__msg_remove_cb, i32 noundef 981, i64 noundef %100, i64 noundef %101, ptr noundef @.str.49)
  br label %103

103:                                              ; preds = %99
  br label %104

104:                                              ; preds = %103
  store i8 1, ptr %14, align 1, !tbaa !13
  %105 = load i8, ptr %14, align 1, !tbaa !13, !range !15, !noundef !16
  %106 = trunc i8 %105 to i1
  %107 = zext i1 %106 to i8
  store i8 %107, ptr %14, align 1, !tbaa !13
  br label %108

108:                                              ; preds = %104
  br label %109

109:                                              ; preds = %108
  br label %110

110:                                              ; preds = %109
  store i32 -1, ptr %13, align 4, !tbaa !8
  br label %132

111:                                              ; No predecessors!
  br label %112

112:                                              ; preds = %111
  br label %113

113:                                              ; preds = %112
  br label %114

114:                                              ; preds = %113
  br label %115

115:                                              ; preds = %114, %84
  %116 = load ptr, ptr %9, align 8, !tbaa !25
  store i32 1, ptr %116, align 4, !tbaa !8
  %117 = load ptr, ptr %11, align 8, !tbaa !10
  %118 = getelementptr inbounds nuw %struct.H5O_iter_rm_t, ptr %117, i32 0, i32 1
  %119 = load i32, ptr %118, align 8, !tbaa !81
  %120 = icmp eq i32 %119, -2
  br i1 %120, label %126, label %121

121:                                              ; preds = %115
  %122 = load ptr, ptr %11, align 8, !tbaa !10
  %123 = getelementptr inbounds nuw %struct.H5O_iter_rm_t, ptr %122, i32 0, i32 1
  %124 = load i32, ptr %123, align 8, !tbaa !81
  %125 = icmp ne i32 %124, -1
  br i1 %125, label %126, label %130

126:                                              ; preds = %121, %115
  br label %127

127:                                              ; preds = %126
  store i32 1, ptr %13, align 4, !tbaa !8
  br label %132

128:                                              ; No predecessors!
  br label %129

129:                                              ; preds = %128
  br label %130

130:                                              ; preds = %129, %121
  br label %131

131:                                              ; preds = %130, %81
  br label %132

132:                                              ; preds = %131, %127, %110, %62
  br label %133

133:                                              ; preds = %132, %22
  %134 = load i32, ptr %13, align 4, !tbaa !8
  call void @llvm.lifetime.end.p0(i64 1, ptr %14) #5
  call void @llvm.lifetime.end.p0(i64 4, ptr %13) #5
  call void @llvm.lifetime.end.p0(i64 4, ptr %12) #5
  call void @llvm.lifetime.end.p0(i64 8, ptr %11) #5
  ret i32 %134
}