; Function Attrs: nounwind uwtable
define internal range(i32 -1, 2) i32 @H5O__msg_remove_cb(ptr noundef %0, ptr noundef %1, i32 noundef %2, ptr noundef writeonly captures(none) %3, ptr noundef readonly captures(none) %4) #0 {
  %6 = load i8, ptr @H5O_init_g, align 1, !tbaa !3, !range !7, !noundef !8
  %7 = trunc nuw i8 %6 to i1
  %8 = load i8, ptr @H5_libterm_g, align 1, !range !7
  %9 = trunc nuw i8 %8 to i1
  %10 = xor i1 %9, true
  %11 = select i1 %7, i1 true, i1 %10
  br i1 %11, label %12, label %.thread, !prof !9

12:                                               ; preds = %5
  %13 = getelementptr inbounds nuw i8, ptr %4, i64 16
  %14 = load ptr, ptr %13, align 8, !tbaa !76
  %.not = icmp eq ptr %14, null
  br i1 %.not, label %26, label %15

15:                                               ; preds = %12
  %16 = getelementptr inbounds nuw i8, ptr %1, i64 24
  %17 = load ptr, ptr %16, align 8, !tbaa !42
  %18 = getelementptr inbounds nuw i8, ptr %4, i64 24
  %19 = load ptr, ptr %18, align 8, !tbaa !77
  %20 = tail call i32 %14(ptr noundef %17, i32 noundef %2, ptr noundef %19) #7
  %21 = icmp slt i32 %20, 0
  br i1 %21, label %22, label %31

22:                                               ; preds = %15
  %23 = load i64, ptr @H5E_OHDR_g, align 8, !tbaa !10
  %24 = load i64, ptr @H5E_CANTDELETE_g, align 8, !tbaa !10
  %25 = tail call i32 (ptr, ptr, i32, i64, i64, ptr, ...) @H5E_printf_stack(ptr noundef nonnull @.str, ptr noundef nonnull @__func__.H5O__msg_remove_cb, i32 noundef 964, i64 noundef %23, i64 noundef %24, ptr noundef nonnull @.str.48) #7
  br label %.thread

26:                                               ; preds = %12
  %27 = getelementptr inbounds nuw i8, ptr %4, i64 8
  %28 = load i32, ptr %27, align 8, !tbaa !74
  %29 = icmp eq i32 %2, %28
  %30 = icmp eq i32 %28, -1
  %or.cond = or i1 %29, %30
  br i1 %or.cond, label %.thread29, label %.thread

31:                                               ; preds = %15
  %.not24 = icmp eq i32 %20, 0
  br i1 %.not24, label %.thread, label %.thread29

.thread29:                                        ; preds = %26, %31
  %32 = load ptr, ptr %4, align 8, !tbaa !72
  %33 = getelementptr inbounds nuw i8, ptr %4, i64 32
  %34 = load i8, ptr %33, align 8, !tbaa !78, !range !7, !noundef !8
  %35 = trunc nuw i8 %34 to i1
  %36 = tail call i32 @H5O__release_mesg(ptr noundef %32, ptr noundef %0, ptr noundef %1, i1 noundef zeroext %35) #7
  %37 = icmp slt i32 %36, 0
  br i1 %37, label %38, label %42

38:                                               ; preds = %.thread29
  %39 = load i64, ptr @H5E_OHDR_g, align 8, !tbaa !10
  %40 = load i64, ptr @H5E_CANTDELETE_g, align 8, !tbaa !10
  %41 = tail call i32 (ptr, ptr, i32, i64, i64, ptr, ...) @H5E_printf_stack(ptr noundef nonnull @.str, ptr noundef nonnull @__func__.H5O__msg_remove_cb, i32 noundef 981, i64 noundef %39, i64 noundef %40, ptr noundef nonnull @.str.49) #7
  br label %.thread

42:                                               ; preds = %.thread29
  store i32 1, ptr %3, align 4, !tbaa !18
  %43 = getelementptr inbounds nuw i8, ptr %4, i64 8
  %44 = load i32, ptr %43, align 8, !tbaa !74
  %cond = icmp ne i32 %44, -1
  %spec.select26 = zext i1 %cond to i32
  br label %.thread

.thread:                                          ; preds = %26, %42, %22, %38, %31, %5
  %.0 = phi i32 [ -1, %22 ], [ -1, %38 ], [ 0, %31 ], [ 0, %5 ], [ %spec.select26, %42 ], [ 0, %26 ]
  ret i32 %.0
}